target datalayout = "e-m:e-p270:32:32-p271:32:32-p272:64:64-i64:64-i128:128-f80:128-n8:16:32:64-S128"
target triple = "x86_64-pc-linux-gnu"

%union.elf_file_hdr = type { %struct.elf_file_hdr64 }
%struct.elf_file_hdr64 = type { [16 x i8], i16, i16, i32, i64, i64, i64, i32, i16, i16, i16, i16, i16, i16 }
%struct.cli_ctx_tag = type { ptr, ptr, ptr, ptr, ptr, ptr, ptr, i64, ptr, i32, i32, ptr, i32, i32, ptr, [16 x i8], ptr, ptr, ptr, ptr, ptr, ptr, %struct.timeval, i8, i8 }
%struct.timeval = type { i64, i64 }
%struct.elf_file_hdr32plus = type { %struct.elf_file_hdr32, [12 x i8] }
%struct.elf_file_hdr32 = type { [16 x i8], i16, i16, i32, i32, i32, i32, i32, i16, i16, i16, i16, i16, i16 }
%struct.cli_exe_info = type { ptr, i32, i32, i16, i32, i32, %struct.cli_hashset, i32, i32, i32, i32, i32, i32, i32, i32, i32, %struct.pe_image_file_hdr, %union.anon, [16 x %struct.pe_image_data_dir] }
%struct.cli_hashset = type { ptr, ptr, ptr, i32, i32, i32, i32 }
%struct.pe_image_file_hdr = type { i32, i16, i16, i32, i32, i32, i16, i16 }
%union.anon = type { %struct.pe_image_optional_hdr64 }
%struct.pe_image_optional_hdr64 = type { i16, i8, i8, i32, i32, i32, i32, i32, i64, i32, i32, i16, i16, i16, i16, i16, i16, i32, i32, i32, i32, i16, i16, i64, i64, i64, i64, i32, i32 }
%struct.pe_image_data_dir = type { i32, i32 }

@.str.22 = private unnamed_addr constant [18 x i8] c"in cli_elfheader\0A\00", align 1
@.str.23 = private unnamed_addr constant [58 x i8] c"cli_elfheader: Assumption Violated: elfinfo->offset != 0\0A\00", align 1

; Function Attrs: nounwind uwtable
define i32 @cli_elfheader(ptr noundef %0, ptr noundef %1) #0 {
  %3 = alloca ptr, align 8
  %4 = alloca ptr, align 8
  %5 = alloca %union.elf_file_hdr, align 8
  %6 = alloca i8, align 1
  %7 = alloca i8, align 1
  %8 = alloca i32, align 4
  store ptr %0, ptr %3, align 8
  store ptr %1, ptr %4, align 8
  store i8 0, ptr %6, align 1
  store i8 0, ptr %7, align 1
  store i32 0, ptr %8, align 4
  call void (ptr, ...) @cli_dbgmsg(ptr noundef @.str.22)
  %9 = load ptr, ptr %4, align 8
  %10 = getelementptr inbounds %struct.cli_exe_info, ptr %9, i32 0, i32 1
  %11 = load i32, ptr %10, align 8
  %12 = icmp ne i32 0, %11
  br i1 %12, label %13, label %14

13:                                               ; preds = %2
  call void (ptr, ...) @cli_dbgmsg(ptr noundef @.str.23)
  br label %14

14:                                               ; preds = %13, %2
  %15 = load ptr, ptr %3, align 8
  %16 = getelementptr inbounds %struct.cli_ctx_tag, ptr %15, i32 0, i32 14
  %17 = load ptr, ptr %16, align 8
  %18 = call i32 @cli_elf_fileheader(ptr noundef null, ptr noundef %17, ptr noundef %5, ptr noundef %6, ptr noundef %7)
  store i32 %18, ptr %8, align 4
  %19 = load i32, ptr %8, align 4
  %20 = icmp ne i32 %19, 0
  br i1 %20, label %21, label %22

21:                                               ; preds = %14
  br label %67

22:                                               ; preds = %14
  %23 = load i8, ptr %7, align 1
  %24 = icmp ne i8 %23, 0
  br i1 %24, label %25, label %32

25:                                               ; preds = %22
  %26 = load ptr, ptr %3, align 8
  %27 = getelementptr inbounds %struct.cli_ctx_tag, ptr %26, i32 0, i32 14
  %28 = load ptr, ptr %27, align 8
  %29 = load ptr, ptr %4, align 8
  %30 = load i8, ptr %6, align 1
  %31 = call i32 @cli_elf_ph64(ptr noundef null, ptr noundef %28, ptr noundef %29, ptr noundef %5, i8 noundef zeroext %30)
  store i32 %31, ptr %8, align 4
  br label %40

32:                                               ; preds = %22
  %33 = load ptr, ptr %3, align 8
  %34 = getelementptr inbounds %struct.cli_ctx_tag, ptr %33, i32 0, i32 14
  %35 = load ptr, ptr %34, align 8
  %36 = load ptr, ptr %4, align 8
  %37 = getelementptr inbounds %struct.elf_file_hdr32plus, ptr %5, i32 0, i32 0
  %38 = load i8, ptr %6, align 1
  %39 = call i32 @cli_elf_ph32(ptr noundef null, ptr noundef %35, ptr noundef %36, ptr noundef %37, i8 noundef zeroext %38)
  store i32 %39, ptr %8, align 4
  br label %40

40:                                               ; preds = %32, %25
  %41 = load i32, ptr %8, align 4
  %42 = icmp ne i32 %41, 0
  br i1 %42, label %43, label %44

43:                                               ; preds = %40
  br label %67

44:                                               ; preds = %40
  %45 = load i8, ptr %7, align 1
  %46 = icmp ne i8 %45, 0
  br i1 %46, label %47, label %54

47:                                               ; preds = %44
  %48 = load ptr, ptr %3, align 8
  %49 = getelementptr inbounds %struct.cli_ctx_tag, ptr %48, i32 0, i32 14
  %50 = load ptr, ptr %49, align 8
  %51 = load ptr, ptr %4, align 8
  %52 = load i8, ptr %6, align 1
  %53 = call i32 @cli_elf_sh64(ptr noundef null, ptr noundef %50, ptr noundef %51, ptr noundef %5, i8 noundef zeroext %52)
  store i32 %53, ptr %8, align 4
  br label %62

54:                                               ; preds = %44
  %55 = load ptr, ptr %3, align 8
  %56 = getelementptr inbounds %struct.cli_ctx_tag, ptr %55, i32 0, i32 14
  %57 = load ptr, ptr %56, align 8
  %58 = load ptr, ptr %4, align 8
  %59 = getelementptr inbounds %struct.elf_file_hdr32plus, ptr %5, i32 0, i32 0
  %60 = load i8, ptr %6, align 1
  %61 = call i32 @cli_elf_sh32(ptr noundef null, ptr noundef %57, ptr noundef %58, ptr noundef %59, i8 noundef zeroext %60)
  store i32 %61, ptr %8, align 4
  br label %62

62:                                               ; preds = %54, %47
  %63 = load i32, ptr %8, align 4
  %64 = icmp ne i32 %63, 0
  br i1 %64, label %65, label %66

65:                                               ; preds = %62
  br label %67

66:                                               ; preds = %62
  br label %67

67:                                               ; preds = %66, %65, %43, %21
  %68 = load i32, ptr %8, align 4
  ret i32 %68
}