; Function Attrs: nounwind uwtable
define noundef i32 @cli_elfheader(ptr nocapture noundef readonly %0, ptr noundef %1) local_unnamed_addr #0 {
  %3 = alloca %union.elf_file_hdr, align 8
  %4 = alloca i8, align 1
  %5 = alloca i8, align 1
  store i8 0, ptr %4, align 1
  store i8 0, ptr %5, align 1
  tail call void (ptr, ...) @cli_dbgmsg(ptr noundef nonnull @.str.22) #8
  %6 = getelementptr inbounds i8, ptr %1, i64 8
  %7 = load i32, ptr %6, align 8
  %.not = icmp eq i32 %7, 0
  br i1 %.not, label %9, label %8

8:                                                ; preds = %2
  tail call void (ptr, ...) @cli_dbgmsg(ptr noundef nonnull @.str.23) #8
  br label %9

9:                                                ; preds = %8, %2
  %10 = getelementptr inbounds i8, ptr %0, i64 96
  %11 = load ptr, ptr %10, align 8
  %12 = call fastcc i32 @cli_elf_fileheader(ptr noundef null, ptr noundef %11, ptr noundef nonnull %3, ptr noundef nonnull %4, ptr noundef nonnull %5), !range !4
  %.not13 = icmp eq i32 %12, 0
  br i1 %.not13, label %13, label %25

13:                                               ; preds = %9
  %14 = load i8, ptr %5, align 1
  %.not14 = icmp eq i8 %14, 0
  %15 = load ptr, ptr %10, align 8
  %16 = load i8, ptr %4, align 1
  br i1 %.not14, label %17, label %.thread

17:                                               ; preds = %13
  %18 = call fastcc i32 @cli_elf_ph32(ptr noundef null, ptr noundef %15, ptr noundef nonnull %1, ptr noundef nonnull %3, i8 noundef zeroext %16), !range !5
  %.not15 = icmp eq i32 %18, 0
  br i1 %.not15, label %22, label %25

.thread:                                          ; preds = %13
  %19 = call fastcc i32 @cli_elf_ph64(ptr noundef null, ptr noundef %15, ptr noundef nonnull %1, ptr noundef nonnull %3, i8 noundef zeroext %16), !range !5
  %.not1518 = icmp eq i32 %19, 0
  br i1 %.not1518, label %.thread19, label %25

.thread19:                                        ; preds = %.thread
  %20 = load ptr, ptr %10, align 8
  %21 = call fastcc i32 @cli_elf_sh64(ptr noundef null, ptr noundef %20, ptr noundef nonnull %1, ptr noundef nonnull %3, i8 noundef zeroext %16), !range !5
  br label %25

22:                                               ; preds = %17
  %23 = load ptr, ptr %10, align 8
  %24 = call fastcc i32 @cli_elf_sh32(ptr noundef null, ptr noundef %23, ptr noundef nonnull %1, ptr noundef nonnull %3, i8 noundef zeroext %16), !range !5
  br label %25

25:                                               ; preds = %.thread, %.thread19, %22, %17, %9
  %.1 = phi i32 [ %12, %9 ], [ %18, %17 ], [ %21, %.thread19 ], [ %24, %22 ], [ %19, %.thread ]
  ret i32 %.1
}